target datalayout = "e-m:e-p270:32:32-p271:32:32-p272:64:64-i64:64-i128:128-f80:128-n8:16:32:64-S128"
target triple = "x86_64-pc-linux-gnu"

%struct.rb_data_type_struct = type { ptr, %struct.anon, ptr, ptr, i64 }
%struct.anon = type { ptr, ptr, ptr, ptr, [1 x ptr] }

@ossl_evp_pkey_type = external constant %struct.rb_data_type_struct, align 8
@rb_eRuntimeError = external global i64, align 8
@.str.23 = private unnamed_addr constant [25 x i8] c"PKEY wasn't initialized!\00", align 1
@.str.24 = private unnamed_addr constant [19 x i8] c"THIS IS NOT A DSA!\00", align 1

; Function Attrs: nounwind sspstrong uwtable
define internal i64 @ossl_dsa_is_public(i64 noundef %0) #0 {
  %2 = alloca i64, align 8
  %3 = alloca ptr, align 8
  %4 = alloca ptr, align 8
  %5 = alloca ptr, align 8
  store i64 %0, ptr %2, align 8, !tbaa !6
  call void @llvm.lifetime.start.p0(i64 8, ptr %3) #11
  call void @llvm.lifetime.start.p0(i64 8, ptr %4) #11
  br label %6

6:                                                ; preds = %1
  call void @llvm.lifetime.start.p0(i64 8, ptr %5) #11
  br label %7

7:                                                ; preds = %6
  br label %8

8:                                                ; preds = %7
  %9 = load i64, ptr %2, align 8, !tbaa !6
  %10 = call ptr @rb_check_typeddata(i64 noundef %9, ptr noundef @ossl_evp_pkey_type)
  store ptr %10, ptr %5, align 8, !tbaa !17
  %11 = load ptr, ptr %5, align 8, !tbaa !17
  %12 = icmp ne ptr %11, null
  br i1 %12, label %15, label %13

13:                                               ; preds = %8
  %14 = load i64, ptr @rb_eRuntimeError, align 8, !tbaa !6
  call void (i64, ptr, ...) @rb_raise(i64 noundef %14, ptr noundef @.str.23) #12
  unreachable

15:                                               ; preds = %8
  br label %16

16:                                               ; preds = %15
  br label %17

17:                                               ; preds = %16
  %18 = load ptr, ptr %5, align 8, !tbaa !17
  %19 = call i32 @EVP_PKEY_get_base_id(ptr noundef %18)
  %20 = icmp ne i32 %19, 116
  br i1 %20, label %21, label %23

21:                                               ; preds = %17
  %22 = load i64, ptr @rb_eRuntimeError, align 8, !tbaa !6
  call void (i64, ptr, ...) @ossl_raise(i64 noundef %22, ptr noundef @.str.24) #12
  unreachable

23:                                               ; preds = %17
  br label %24

24:                                               ; preds = %23
  br label %25

25:                                               ; preds = %24
  %26 = load ptr, ptr %5, align 8, !tbaa !17
  %27 = call ptr @EVP_PKEY_get0_DSA(ptr noundef %26)
  store ptr %27, ptr %3, align 8, !tbaa !19
  call void @llvm.lifetime.end.p0(i64 8, ptr %5) #11
  br label %28

28:                                               ; preds = %25
  br label %29

29:                                               ; preds = %28
  %30 = load ptr, ptr %3, align 8, !tbaa !19
  call void @DSA_get0_key(ptr noundef %30, ptr noundef %4, ptr noundef null)
  %31 = load ptr, ptr %4, align 8, !tbaa !25
  %32 = icmp ne ptr %31, null
  %33 = select i1 %32, i64 20, i64 0
  call void @llvm.lifetime.end.p0(i64 8, ptr %4) #11
  call void @llvm.lifetime.end.p0(i64 8, ptr %3) #11
  ret i64 %33
}